; Function Attrs: mustprogress uwtable
define hidden void @_ZN6Assimp12AC3DImporter15SetupPropertiesEPKNS_8ImporterE(ptr nocapture noundef nonnull writeonly align 8 dereferenceable(112) %this, ptr noundef nonnull %pImp) unnamed_addr #3 align 2 {
entry:
  %call = tail call noundef i32 @_ZNK6Assimp8Importer18GetPropertyIntegerEPKci(ptr noundef nonnull align 8 dereferenceable(8) %pImp, ptr noundef nonnull @.str.54, i32 noundef 1)
  %tobool = icmp ne i32 %call, 0
  %configSplitBFCull = getelementptr inbounds i8, ptr %this, i64 80
  %frombool = zext i1 %tobool to i8
  store i8 %frombool, ptr %configSplitBFCull, align 8
  %call2 = tail call noundef i32 @_ZNK6Assimp8Importer18GetPropertyIntegerEPKci(ptr noundef nonnull align 8 dereferenceable(8) %pImp, ptr noundef nonnull @.str.55, i32 noundef 1)
  %tobool3 = icmp ne i32 %call2, 0
  %configEvalSubdivision = getelementptr inbounds i8, ptr %this, i64 81
  %frombool5 = zext i1 %tobool3 to i8
  store i8 %frombool5, ptr %configEvalSubdivision, align 1
  ret void
}